; Function Attrs: mustprogress nounwind sspstrong uwtable
define noundef ptr @_ZN3tbb6detail2r117tbb_exception_ptr8allocateEv() local_unnamed_addr #1 align 2 personality ptr @__gxx_personality_v0 {
  %1 = alloca %"class.std::__exception_ptr::exception_ptr", align 8
  %2 = invoke noundef ptr @_ZN3tbb6detail2r115allocate_memoryEm(i64 noundef 8)
          to label %3 unwind label %9

3:                                                ; preds = %0
  %.not.not = icmp eq ptr %2, null
  br i1 %.not.not, label %.critedge, label %4

4:                                                ; preds = %3
  call void @llvm.lifetime.start.p0(i64 8, ptr nonnull %1) #13
  call void @_ZSt17current_exceptionv(ptr dead_on_unwind nonnull writable sret(%"class.std::__exception_ptr::exception_ptr") align 8 %1) #13
  %5 = load ptr, ptr %1, align 8, !tbaa !3
  store ptr %5, ptr %2, align 8, !tbaa !3
  %.not.i.i = icmp eq ptr %5, null
  br i1 %.not.i.i, label %_ZNSt15__exception_ptr13exception_ptrD2Ev.exit, label %6

6:                                                ; preds = %4
  call void @_ZNSt15__exception_ptr13exception_ptr9_M_addrefEv(ptr noundef nonnull align 8 dereferenceable(8) %2) #13
  %.pre = load ptr, ptr %1, align 8, !tbaa !3
  %7 = icmp eq ptr %.pre, null
  br i1 %7, label %_ZNSt15__exception_ptr13exception_ptrD2Ev.exit, label %8

8:                                                ; preds = %6
  call void @_ZNSt15__exception_ptr13exception_ptr10_M_releaseEv(ptr noundef nonnull align 8 dereferenceable(8) %1) #13
  br label %_ZNSt15__exception_ptr13exception_ptrD2Ev.exit

_ZNSt15__exception_ptr13exception_ptrD2Ev.exit:   ; preds = %4, %6, %8
  call void @llvm.lifetime.end.p0(i64 8, ptr nonnull %1) #13
  br label %.critedge

.critedge:                                        ; preds = %3, %_ZNSt15__exception_ptr13exception_ptrD2Ev.exit
  ret ptr %2

9:                                                ; preds = %0
  %10 = landingpad { ptr, i32 }
          catch ptr null
  %11 = extractvalue { ptr, i32 } %10, 0
  tail call void @__clang_call_terminate(ptr %11) #16
  unreachable
}